; Function Attrs: nounwind uwtable
define internal fastcc range(i32 -1, 1) i32 @strbuf_getdelim(ptr noundef %0, ptr noundef %1, i32 noundef range(i32 0, 11) %2) unnamed_addr #3 {
  %4 = tail call i32 @feof(ptr noundef %1) #25
  %.not.i = icmp eq i32 %4, 0
  br i1 %.not.i, label %5, label %strbuf_setlen.exit

5:                                                ; preds = %3
  %6 = getelementptr inbounds nuw i8, ptr %0, i64 8
  store i64 0, ptr %6, align 8, !tbaa !16
  %7 = getelementptr inbounds nuw i8, ptr %0, i64 16
  %8 = load ptr, ptr %7, align 8, !tbaa !12
  %.not9.i.i = icmp eq ptr %8, @strbuf_slopbuf
  br i1 %.not9.i.i, label %strbuf_setlen.exit.i, label %9

9:                                                ; preds = %5
  store i8 0, ptr %8, align 1, !tbaa !4
  br label %strbuf_setlen.exit.i

strbuf_setlen.exit.i:                             ; preds = %9, %5
  %10 = load i64, ptr %0, align 8, !tbaa !15
  %.not15.i = icmp eq i64 %10, 0
  br i1 %.not15.i, label %11, label %12

11:                                               ; preds = %strbuf_setlen.exit.i
  store ptr null, ptr %7, align 8, !tbaa !12
  br label %12

12:                                               ; preds = %11, %strbuf_setlen.exit.i
  %13 = tail call ptr @__errno_location() #27
  store i32 0, ptr %13, align 4, !tbaa !33
  %14 = tail call i64 @getdelim(ptr noundef nonnull %7, ptr noundef nonnull %0, i32 noundef %2, ptr noundef %1) #25
  %15 = icmp sgt i64 %14, 0
  br i1 %15, label %25, label %16

16:                                               ; preds = %12
  %17 = load i32, ptr %13, align 4, !tbaa !33
  %18 = icmp eq i32 %17, 12
  br i1 %18, label %19, label %20

19:                                               ; preds = %16
  tail call void (ptr, ...) @die(ptr noundef nonnull @.str.14) #24
  unreachable

20:                                               ; preds = %16
  %21 = load ptr, ptr %7, align 8, !tbaa !12
  %.not16.i = icmp eq ptr %21, null
  br i1 %.not16.i, label %22, label %23

22:                                               ; preds = %20
  tail call void @llvm.memcpy.p0.p0.i64(ptr noundef nonnull align 8 dereferenceable(24) %0, ptr noundef nonnull align 8 dereferenceable(24) @__const.strbuf_addftime.munged_fmt, i64 24, i1 false)
  br label %strbuf_setlen.exit

23:                                               ; preds = %20
  store i64 0, ptr %6, align 8, !tbaa !16
  %.not9.i18.i = icmp eq ptr %21, @strbuf_slopbuf
  br i1 %.not9.i18.i, label %strbuf_setlen.exit, label %24

24:                                               ; preds = %23
  store i8 0, ptr %21, align 1, !tbaa !4
  br label %strbuf_setlen.exit

25:                                               ; preds = %12
  store i64 %14, ptr %6, align 8, !tbaa !16
  %26 = load ptr, ptr %7, align 8, !tbaa !12
  %27 = add nsw i64 %14, -1
  %28 = getelementptr inbounds nuw i8, ptr %26, i64 %27
  %29 = load i8, ptr %28, align 1, !tbaa !4
  %30 = sext i8 %29 to i32
  %31 = icmp eq i32 %2, %30
  br i1 %31, label %32, label %strbuf_setlen.exit

32:                                               ; preds = %25
  %33 = load i64, ptr %0, align 8, !tbaa !15
  %spec.select.i = tail call i64 @llvm.usub.sat.i64(i64 %33, i64 1)
  %34 = icmp ugt i64 %27, %spec.select.i
  br i1 %34, label %35, label %36

35:                                               ; preds = %32
  tail call void (ptr, i32, ptr, ...) @BUG_fl(ptr noundef nonnull @.str.28, i32 noundef 167, ptr noundef nonnull @.str.29) #24
  unreachable

36:                                               ; preds = %32
  store i64 %27, ptr %6, align 8, !tbaa !16
  %.not9.i = icmp eq ptr %26, @strbuf_slopbuf
  br i1 %.not9.i, label %strbuf_setlen.exit, label %37

37:                                               ; preds = %36
  store i8 0, ptr %28, align 1, !tbaa !4
  br label %strbuf_setlen.exit

strbuf_setlen.exit:                               ; preds = %24, %23, %22, %3, %37, %36, %25
  %.0 = phi i32 [ 0, %25 ], [ 0, %36 ], [ 0, %37 ], [ -1, %3 ], [ -1, %22 ], [ -1, %23 ], [ -1, %24 ]
  ret i32 %.0
}